ccopy_reg
_reconstructor
p0
(cnltk.classify.naivebayes
NaiveBayesClassifier
p1
c__builtin__
object
p2
Ntp3
Rp4
(dp5
S'_labels'
p6
(lp7
I00
aI01
asS'_feature_probdist'
p8
(dp9
(I01
S'punct'
p10
tp11
g0
(cnltk.probability
ELEProbDist
p12
g2
Ntp13
Rp14
(dp15
S'_gamma'
p16
F0.5
sS'_N'
p17
I85872
sS'_freqdist'
p18
cnltk.probability
FreqDist
p19
((dp20
V!
p21
I2267
sV?
p22
I3218
sV.
p23
I80387
stp24
Rp25
sS'_bins'
p26
I4
sS'_divisor'
p27
F85874.0
sbs(I00
g10
tp28
g0
(g12
g2
Ntp29
Rp30
(dp31
g16
F0.5
sg17
I2763
sg18
g19
((dp32
V
p33
I2678
sV!
p34
I8
sV?
p35
I13
sV.
p36
I64
stp37
Rp38
sg26
I4
sg27
F2765.0
sbs(I00
S'next-word-is-one-char'
p39
tp40
g0
(g12
g2
Ntp41
Rp42
(dp43
g16
F0.5
sg17
I2763
sg18
g19
((dp44
I00
I1159
sI01
I1604
stp45
Rp46
sg26
I2
sg27
F2764.0
sbs(I01
S'next-word-capitalized'
p47
tp48
g0
(g12
g2
Ntp49
Rp50
(dp51
g16
F0.5
sg17
I85872
sg18
g19
((dp52
I00
I11522
sI01
I74350
stp53
Rp54
sg26
I2
sg27
F85873.0
sbs(I01
g39
tp55
g0
(g12
g2
Ntp56
Rp57
(dp58
g16
F0.5
sg17
I85872
sg18
g19
((dp59
I00
I68161
sI01
I17711
stp60
Rp61
sg26
I2
sg27
F85873.0
sbs(I00
S'prev-word-is-one-char'
p62
tp63
g0
(g12
g2
Ntp64
Rp65
(dp66
g16
F0.5
sg17
I2763
sg18
g19
((dp67
I00
I2272
sI01
I491
stp68
Rp69
sg26
I2
sg27
F2764.0
sbs(I01
g62
tp70
g0
(g12
g2
Ntp71
Rp72
(dp73
g16
F0.5
sg17
I85872
sg18
g19
((dp74
I00
I85409
sI01
I463
stp75
Rp76
sg26
I2
sg27
F85873.0
sbs(I00
g47
tp77
g0
(g12
g2
Ntp78
Rp79
(dp80
g16
F0.5
sg17
I2763
sg18
g19
((dp81
I00
I2589
sI01
I174
stp82
Rp83
sg26
I2
sg27
F2764.0
sbssS'_label_probdist'
p84
g0
(g12
g2
Ntp85
Rp86
(dp87
g16
F0.5
sg17
I88635
sg18
g19
((dp88
I00
I2763
sI01
I85872
stp89
Rp90
sg26
I2
sg27
F88636.0
sbsb.